target datalayout = "e-m:e-p270:32:32-p271:32:32-p272:64:64-i64:64-i128:128-f80:128-n8:16:32:64-S128"
target triple = "x86_64-pc-linux-gnu"

%struct.htbl_t = type { i64, i64, i64, i64 }

@H5PT_ptable_id_type = internal global i32 -2, align 4

; Function Attrs: nounwind uwtable
define i64 @H5PTget_type(i64 noundef %0) #0 {
  %2 = alloca i64, align 8
  %3 = alloca ptr, align 8
  %4 = alloca i64, align 8
  store i64 %0, ptr %2, align 8, !tbaa !3
  call void @llvm.lifetime.start.p0(i64 8, ptr %3) #6
  call void @llvm.lifetime.start.p0(i64 8, ptr %4) #6
  store i64 -1, ptr %4, align 8, !tbaa !3
  %5 = load i64, ptr %2, align 8, !tbaa !3
  %6 = load i32, ptr @H5PT_ptable_id_type, align 4, !tbaa !11
  %7 = call ptr @H5Iobject_verify(i64 noundef %5, i32 noundef %6)
  store ptr %7, ptr %3, align 8, !tbaa !10
  %8 = icmp eq ptr %7, null
  br i1 %8, label %9, label %10

9:                                                ; preds = %1
  br label %14

10:                                               ; preds = %1
  %11 = load ptr, ptr %3, align 8, !tbaa !10
  %12 = getelementptr inbounds nuw %struct.htbl_t, ptr %11, i32 0, i32 1
  %13 = load i64, ptr %12, align 8, !tbaa !15
  store i64 %13, ptr %4, align 8, !tbaa !3
  br label %14

14:                                               ; preds = %10, %9
  %15 = load i64, ptr %4, align 8, !tbaa !3
  call void @llvm.lifetime.end.p0(i64 8, ptr %4) #6
  call void @llvm.lifetime.end.p0(i64 8, ptr %3) #6
  ret i64 %15
}