; Function Attrs: nounwind uwtable
define i64 @H5PTget_type(i64 noundef %0) local_unnamed_addr #0 {
  %2 = load i32, ptr @H5PT_ptable_id_type, align 4, !tbaa !3
  %3 = tail call ptr @H5Iobject_verify(i64 noundef %0, i32 noundef %2) #7
  %4 = icmp eq ptr %3, null
  br i1 %4, label %8, label %5

5:                                                ; preds = %1
  %6 = getelementptr inbounds nuw i8, ptr %3, i64 8
  %7 = load i64, ptr %6, align 8, !tbaa !16
  br label %8

8:                                                ; preds = %1, %5
  %.0 = phi i64 [ -1, %1 ], [ %7, %5 ]
  ret i64 %.0
}